target datalayout = "e-m:e-p270:32:32-p271:32:32-p272:64:64-i64:64-i128:128-f80:128-n8:16:32:64-S128"
target triple = "x86_64-pc-linux-gnu"

%struct.AVChannelLayout = type { i32, i32, %union.anon.1, ptr }
%union.anon.1 = type { i64 }
%struct.AVFilterContext = type { ptr, ptr, ptr, ptr, ptr, i32, ptr, ptr, i32, ptr, ptr, i32, i32, ptr, ptr, ptr, ptr, i32, ptr, i32, i32 }
%struct.AudioVectorScopeContext = type { ptr, ptr, i32, i32, i32, i32, i32, i32, i32, [4 x i32], [4 x i32], double, i32, i32, i32, i32, %struct.AVRational, i32 }
%struct.AVRational = type { i32, i32 }
%struct.AVFilterFormatsConfig = type { ptr, ptr, ptr, ptr, ptr }
%struct.AVFilterLink = type { ptr, ptr, ptr, ptr, i32, i32, i32, i32, %struct.AVRational, i32, i32, i32, %struct.AVChannelLayout, %struct.AVRational, ptr, i32, %struct.AVFilterFormatsConfig, %struct.AVFilterFormatsConfig }

; Function Attrs: nounwind uwtable
define internal i32 @config_input(ptr noundef %0) #1 {
  %2 = alloca ptr, align 8
  %3 = alloca ptr, align 8
  %4 = alloca ptr, align 8
  store ptr %0, ptr %2, align 8, !tbaa !32
  call void @llvm.lifetime.start.p0(i64 8, ptr %3) #11
  %5 = load ptr, ptr %2, align 8, !tbaa !32
  %6 = getelementptr inbounds nuw %struct.AVFilterLink, ptr %5, i32 0, i32 2
  %7 = load ptr, ptr %6, align 8, !tbaa !43
  store ptr %7, ptr %3, align 8, !tbaa !4
  call void @llvm.lifetime.start.p0(i64 8, ptr %4) #11
  %8 = load ptr, ptr %3, align 8, !tbaa !4
  %9 = getelementptr inbounds nuw %struct.AVFilterContext, ptr %8, i32 0, i32 9
  %10 = load ptr, ptr %9, align 8, !tbaa !9
  store ptr %10, ptr %4, align 8, !tbaa !22
  %11 = load ptr, ptr %2, align 8, !tbaa !32
  %12 = getelementptr inbounds nuw %struct.AVFilterLink, ptr %11, i32 0, i32 11
  %13 = load i32, ptr %12, align 8, !tbaa !49
  %14 = sext i32 %13 to i64
  %15 = load ptr, ptr %4, align 8, !tbaa !22
  %16 = getelementptr inbounds nuw %struct.AudioVectorScopeContext, ptr %15, i32 0, i32 16
  %17 = getelementptr inbounds nuw %struct.AVRational, ptr %16, i32 0, i32 1
  %18 = load i32, ptr %17, align 4, !tbaa !50
  %19 = sext i32 %18 to i64
  %20 = load ptr, ptr %4, align 8, !tbaa !22
  %21 = getelementptr inbounds nuw %struct.AudioVectorScopeContext, ptr %20, i32 0, i32 16
  %22 = getelementptr inbounds nuw %struct.AVRational, ptr %21, i32 0, i32 0
  %23 = load i32, ptr %22, align 8, !tbaa !51
  %24 = sext i32 %23 to i64
  %25 = call i64 @av_rescale(i64 noundef %14, i64 noundef %19, i64 noundef %24) #12
  %26 = icmp sgt i64 1, %25
  br i1 %26, label %27, label %28

27:                                               ; preds = %1
  br label %44

28:                                               ; preds = %1
  %29 = load ptr, ptr %2, align 8, !tbaa !32
  %30 = getelementptr inbounds nuw %struct.AVFilterLink, ptr %29, i32 0, i32 11
  %31 = load i32, ptr %30, align 8, !tbaa !49
  %32 = sext i32 %31 to i64
  %33 = load ptr, ptr %4, align 8, !tbaa !22
  %34 = getelementptr inbounds nuw %struct.AudioVectorScopeContext, ptr %33, i32 0, i32 16
  %35 = getelementptr inbounds nuw %struct.AVRational, ptr %34, i32 0, i32 1
  %36 = load i32, ptr %35, align 4, !tbaa !50
  %37 = sext i32 %36 to i64
  %38 = load ptr, ptr %4, align 8, !tbaa !22
  %39 = getelementptr inbounds nuw %struct.AudioVectorScopeContext, ptr %38, i32 0, i32 16
  %40 = getelementptr inbounds nuw %struct.AVRational, ptr %39, i32 0, i32 0
  %41 = load i32, ptr %40, align 8, !tbaa !51
  %42 = sext i32 %41 to i64
  %43 = call i64 @av_rescale(i64 noundef %32, i64 noundef %37, i64 noundef %42) #12
  br label %44

44:                                               ; preds = %28, %27
  %45 = phi i64 [ 1, %27 ], [ %43, %28 ]
  %46 = trunc i64 %45 to i32
  %47 = load ptr, ptr %4, align 8, !tbaa !22
  %48 = getelementptr inbounds nuw %struct.AudioVectorScopeContext, ptr %47, i32 0, i32 17
  store i32 %46, ptr %48, align 8, !tbaa !35
  call void @llvm.lifetime.end.p0(i64 8, ptr %4) #11
  call void @llvm.lifetime.end.p0(i64 8, ptr %3) #11
  ret i32 0
}