; Function Attrs: mustprogress nofree nosync nounwind willreturn memory(readwrite, inaccessiblemem: none) uwtable
define internal noundef i32 @config_input(ptr noundef readonly captures(none) %0) #3 {
  %2 = getelementptr inbounds nuw i8, ptr %0, i64 16
  %3 = load ptr, ptr %2, align 8, !tbaa !32
  %4 = getelementptr inbounds nuw i8, ptr %3, i64 72
  %5 = load ptr, ptr %4, align 8, !tbaa !4
  %6 = getelementptr inbounds nuw i8, ptr %0, i64 64
  %7 = load i32, ptr %6, align 8, !tbaa !79
  %8 = sext i32 %7 to i64
  %9 = getelementptr inbounds nuw i8, ptr %5, i64 104
  %10 = getelementptr inbounds nuw i8, ptr %5, i64 108
  %11 = load i32, ptr %10, align 4, !tbaa !80
  %12 = sext i32 %11 to i64
  %13 = load i32, ptr %9, align 8, !tbaa !81
  %14 = sext i32 %13 to i64
  %15 = tail call i64 @av_rescale(i64 noundef %8, i64 noundef %12, i64 noundef %14) #14
  %spec.select9 = tail call i64 @llvm.smax.i64(i64 %15, i64 1)
  %spec.select = trunc i64 %spec.select9 to i32
  %16 = getelementptr inbounds nuw i8, ptr %5, i64 112
  store i32 %spec.select, ptr %16, align 8, !tbaa !26
  ret i32 0
}